; Function Attrs: mustprogress uwtable
define void @_ZN6google8protobuf8compiler10StripProtoB5cxx11ESt17basic_string_viewIcSt11char_traitsIcEE(ptr noalias sret(%"class.std::__cxx11::basic_string") align 8 %agg.result, i64 %filename.coerce0, ptr %filename.coerce1) local_unnamed_addr #6 personality ptr @__gxx_personality_v0 {
entry:
  %agg.tmp.i23 = alloca %"struct.std::__cxx11::basic_string<char>::__sv_wrapper", align 8
  %agg.tmp.i = alloca %"struct.std::__cxx11::basic_string<char>::__sv_wrapper", align 8
  %ref.tmp5 = alloca %"class.std::allocator.0", align 1
  %ref.tmp10 = alloca %"class.std::allocator.0", align 1
  %cmp.not.i = icmp ult i64 %filename.coerce0, 11
  br i1 %cmp.not.i, label %lor.rhs.i.i9, label %_ZN4absl12lts_202308028EndsWithESt17basic_string_viewIcSt11char_traitsIcEES4_.exit

_ZN4absl12lts_202308028EndsWithESt17basic_string_viewIcSt11char_traitsIcEES4_.exit: ; preds = %entry
  %0 = getelementptr i8, ptr %filename.coerce1, i64 %filename.coerce0
  %add.ptr.i = getelementptr i8, ptr %0, i64 -11
  %bcmp.i = tail call i32 @bcmp(ptr noundef nonnull dereferenceable(11) %add.ptr.i, ptr noundef nonnull dereferenceable(11) @.str.6, i64 11)
  %cmp9.i = icmp eq i32 %bcmp.i, 0
  br i1 %cmp9.i, label %_ZN4absl12lts_202308028EndsWithESt17basic_string_viewIcSt11char_traitsIcEES4_.exit.i, label %_ZN4absl12lts_202308028EndsWithESt17basic_string_viewIcSt11char_traitsIcEES4_.exit.i11

_ZN4absl12lts_202308028EndsWithESt17basic_string_viewIcSt11char_traitsIcEES4_.exit.i: ; preds = %_ZN4absl12lts_202308028EndsWithESt17basic_string_viewIcSt11char_traitsIcEES4_.exit
  %sub.i.i = add i64 %filename.coerce0, -11
  %add.ptr.i.i = getelementptr inbounds i8, ptr %filename.coerce1, i64 %sub.i.i
  %bcmp.i.i = tail call i32 @bcmp(ptr noundef nonnull dereferenceable(11) %add.ptr.i.i, ptr noundef nonnull dereferenceable(11) @.str.6, i64 11)
  %cmp9.i.i = icmp eq i32 %bcmp.i.i, 0
  %spec.select.i = select i1 %cmp9.i.i, i64 %sub.i.i, i64 %filename.coerce0
  call void @_ZNSaIcEC1Ev(ptr noundef nonnull align 1 dereferenceable(1) %ref.tmp5) #27
  call void @llvm.lifetime.start.p0(i64 16, ptr nonnull %agg.tmp.i)
  %call.i = call { i64, ptr } @_ZNSt7__cxx1112basic_stringIcSt11char_traitsIcESaIcEE17_S_to_string_viewESt17basic_string_viewIcS2_E(i64 %spec.select.i, ptr %filename.coerce1) #27
  %1 = extractvalue { i64, ptr } %call.i, 0
  %2 = extractvalue { i64, ptr } %call.i, 1
  call void @_ZNSt7__cxx1112basic_stringIcSt11char_traitsIcESaIcEE12__sv_wrapperC1ESt17basic_string_viewIcS2_E(ptr noundef nonnull align 8 dereferenceable(16) %agg.tmp.i, i64 %1, ptr %2) #27
  %3 = load i64, ptr %agg.tmp.i, align 8
  %4 = getelementptr inbounds nuw i8, ptr %agg.tmp.i, i64 8
  %5 = load ptr, ptr %4, align 8
  invoke void @_ZNSt7__cxx1112basic_stringIcSt11char_traitsIcESaIcEEC2ENS4_12__sv_wrapperERKS3_(ptr noundef nonnull align 8 dereferenceable(32) %agg.result, i64 %3, ptr %5, ptr noundef nonnull align 1 dereferenceable(1) %ref.tmp5)
          to label %invoke.cont unwind label %lpad

invoke.cont:                                      ; preds = %_ZN4absl12lts_202308028EndsWithESt17basic_string_viewIcSt11char_traitsIcEES4_.exit.i
  call void @llvm.lifetime.end.p0(i64 16, ptr nonnull %agg.tmp.i)
  br label %return

lpad:                                             ; preds = %_ZN4absl12lts_202308028EndsWithESt17basic_string_viewIcSt11char_traitsIcEES4_.exit.i
  %6 = landingpad { ptr, i32 }
          cleanup
  br label %eh.resume

lor.rhs.i.i9:                                     ; preds = %entry
  %cmp.not.i.i10 = icmp samesign ult i64 %filename.coerce0, 6
  br i1 %cmp.not.i.i10, label %_ZN4absl12lts_2023080211StripSuffixESt17basic_string_viewIcSt11char_traitsIcEES4_.exit22, label %_ZN4absl12lts_202308028EndsWithESt17basic_string_viewIcSt11char_traitsIcEES4_.exit.i11

_ZN4absl12lts_202308028EndsWithESt17basic_string_viewIcSt11char_traitsIcEES4_.exit.i11: ; preds = %_ZN4absl12lts_202308028EndsWithESt17basic_string_viewIcSt11char_traitsIcEES4_.exit, %lor.rhs.i.i9
  %sub.i.i12 = add i64 %filename.coerce0, -6
  %add.ptr.i.i13 = getelementptr inbounds i8, ptr %filename.coerce1, i64 %sub.i.i12
  %bcmp.i.i14 = tail call i32 @bcmp(ptr noundef nonnull dereferenceable(6) %add.ptr.i.i13, ptr noundef nonnull dereferenceable(6) @.str.7, i64 6)
  %cmp9.i.i15 = icmp eq i32 %bcmp.i.i14, 0
  %spec.select.i16 = select i1 %cmp9.i.i15, i64 %sub.i.i12, i64 %filename.coerce0
  br label %_ZN4absl12lts_2023080211StripSuffixESt17basic_string_viewIcSt11char_traitsIcEES4_.exit22

_ZN4absl12lts_2023080211StripSuffixESt17basic_string_viewIcSt11char_traitsIcEES4_.exit22: ; preds = %lor.rhs.i.i9, %_ZN4absl12lts_202308028EndsWithESt17basic_string_viewIcSt11char_traitsIcEES4_.exit.i11
  %str.sroa.0.0.i17 = phi i64 [ %filename.coerce0, %lor.rhs.i.i9 ], [ %spec.select.i16, %_ZN4absl12lts_202308028EndsWithESt17basic_string_viewIcSt11char_traitsIcEES4_.exit.i11 ]
  call void @_ZNSaIcEC1Ev(ptr noundef nonnull align 1 dereferenceable(1) %ref.tmp10) #27
  call void @llvm.lifetime.start.p0(i64 16, ptr nonnull %agg.tmp.i23)
  %call.i27 = call { i64, ptr } @_ZNSt7__cxx1112basic_stringIcSt11char_traitsIcESaIcEE17_S_to_string_viewESt17basic_string_viewIcS2_E(i64 %str.sroa.0.0.i17, ptr %filename.coerce1) #27
  %7 = extractvalue { i64, ptr } %call.i27, 0
  %8 = extractvalue { i64, ptr } %call.i27, 1
  call void @_ZNSt7__cxx1112basic_stringIcSt11char_traitsIcESaIcEE12__sv_wrapperC1ESt17basic_string_viewIcS2_E(ptr noundef nonnull align 8 dereferenceable(16) %agg.tmp.i23, i64 %7, ptr %8) #27
  %9 = load i64, ptr %agg.tmp.i23, align 8
  %10 = getelementptr inbounds nuw i8, ptr %agg.tmp.i23, i64 8
  %11 = load ptr, ptr %10, align 8
  invoke void @_ZNSt7__cxx1112basic_stringIcSt11char_traitsIcESaIcEEC2ENS4_12__sv_wrapperERKS3_(ptr noundef nonnull align 8 dereferenceable(32) %agg.result, i64 %9, ptr %11, ptr noundef nonnull align 1 dereferenceable(1) %ref.tmp10)
          to label %invoke.cont12 unwind label %lpad11

invoke.cont12:                                    ; preds = %_ZN4absl12lts_2023080211StripSuffixESt17basic_string_viewIcSt11char_traitsIcEES4_.exit22
  call void @llvm.lifetime.end.p0(i64 16, ptr nonnull %agg.tmp.i23)
  br label %return

lpad11:                                           ; preds = %_ZN4absl12lts_2023080211StripSuffixESt17basic_string_viewIcSt11char_traitsIcEES4_.exit22
  %12 = landingpad { ptr, i32 }
          cleanup
  br label %eh.resume

return:                                           ; preds = %invoke.cont12, %invoke.cont
  %ref.tmp10.sink = phi ptr [ %ref.tmp10, %invoke.cont12 ], [ %ref.tmp5, %invoke.cont ]
  call void @_ZNSaIcED1Ev(ptr noundef nonnull align 1 dereferenceable(1) %ref.tmp10.sink) #27
  ret void

eh.resume:                                        ; preds = %lpad11, %lpad
  %ref.tmp10.sink31 = phi ptr [ %ref.tmp10, %lpad11 ], [ %ref.tmp5, %lpad ]
  %.pn = phi { ptr, i32 } [ %12, %lpad11 ], [ %6, %lpad ]
  call void @_ZNSaIcED1Ev(ptr noundef nonnull align 1 dereferenceable(1) %ref.tmp10.sink31) #27
  resume { ptr, i32 } %.pn
}